; Function Attrs: nounwind uwtable
define dso_local { i64, ptr } @jq_get_lib_dirs(ptr noundef readonly captures(none) %0) local_unnamed_addr #0 {
  %2 = tail call { i64, ptr } @jv_string(ptr noundef nonnull @.str.23) #13
  %3 = extractvalue { i64, ptr } %2, 0
  %4 = extractvalue { i64, ptr } %2, 1
  %5 = getelementptr inbounds nuw i8, ptr %0, i64 176
  %6 = load i64, ptr %5, align 8
  %7 = getelementptr inbounds nuw i8, ptr %0, i64 184
  %8 = load ptr, ptr %7, align 8
  %9 = tail call { i64, ptr } @jv_copy(i64 %6, ptr %8) #13
  %10 = extractvalue { i64, ptr } %9, 0
  %11 = extractvalue { i64, ptr } %9, 1
  %12 = tail call { i64, ptr } @jv_object_get(i64 %10, ptr %11, i64 %3, ptr %4) #13
  %13 = extractvalue { i64, ptr } %12, 0
  %14 = extractvalue { i64, ptr } %12, 1
  %15 = tail call i32 @jv_get_kind(i64 %13, ptr %14) #13
  %.not3 = icmp eq i32 %15, 0
  br i1 %.not3, label %16, label %18

16:                                               ; preds = %1
  %17 = tail call { i64, ptr } @jv_array() #13
  br label %18

18:                                               ; preds = %1, %16
  %.fca.1.insert.merged = phi { i64, ptr } [ %17, %16 ], [ %12, %1 ]
  ret { i64, ptr } %.fca.1.insert.merged
}